(dp0
S'grad_clip'
p1
I5
sS'max_epoch'
p2
I50
sS'learning_rate'
p3
F0.01
sS'max_seq_length'
p4
I200
sS'batch_size'
p5
I200
sS'train_frac'
p6
F0.7
sS'use_config_file_if_checkpoint_exists'
p7
I01
sS'num_layers'
p8
I2
sS'max_vocab_size'
p9
I1700000
sS'steps_per_checkpoint'
p10
I50
sS'hidden_size'
p11
I5000
sS'dropout'
p12
F0.5
sS'lr_decay_factor'
p13
F0.97
s.